target datalayout = "e-m:e-p270:32:32-p271:32:32-p272:64:64-i64:64-i128:128-f80:128-n8:16:32:64-S128"
target triple = "x86_64-pc-linux-gnu"

%struct.mbedtls_mpi = type { ptr, i16, i16 }
%union.mbedtls_ssl_user_data_t = type { i64 }
%struct.mbedtls_ssl_context = type { ptr, i32, i32, i32, i32, i32, ptr, ptr, ptr, ptr, ptr, ptr, ptr, ptr, ptr, ptr, ptr, ptr, ptr, ptr, ptr, ptr, ptr, ptr, ptr, ptr, ptr, ptr, ptr, ptr, ptr, ptr, ptr, i32, i64, i64, i16, i64, i64, i64, i64, i32, i32, i8, i8, i32, i8, ptr, ptr, ptr, ptr, ptr, ptr, ptr, i32, i64, i64, [8 x i8], i16, ptr, ptr, ptr, i64, i32, i64, [12 x i8], [12 x i8], [32 x i8], i8, i8, ptr, ptr, %union.mbedtls_ssl_user_data_t }
%struct.mbedtls_md_context_t = type { ptr, ptr, ptr }
%struct.mbedtls_ssl_ciphersuite_t = type { i32, ptr, i8, i8, i8, i8, i16, i16 }
%struct.mbedtls_ssl_handshake_params = type { i8, i8, i8, i8, i8, i32, i8, i8, i8, i8, ptr, ptr, ptr, ptr, ptr, i8, i8, i8, i8, i16, i16, [20 x i16], ptr, ptr, %struct.mbedtls_dhm_context, %struct.mbedtls_ecdh_context, i16, i64, i32, i8, [1024 x i8], i64, ptr, ptr, i64, i16, ptr, ptr, ptr, ptr, %struct.anon, ptr, i16, i8, i32, i32, i32, ptr, ptr, ptr, i32, ptr, [8 x i8], i8, [32 x i8], i8, i16, %struct.mbedtls_md_context_t, %struct.mbedtls_md_context_t, i16, i8, %union.anon.1, [64 x i8], [1076 x i8], i64, i32, i32, i8, ptr, ptr, %union.anon.4, %struct.mbedtls_ssl_tls13_handshake_secrets, ptr, i64, ptr }
%struct.mbedtls_dhm_context = type { %struct.mbedtls_mpi, %struct.mbedtls_mpi, %struct.mbedtls_mpi, %struct.mbedtls_mpi, %struct.mbedtls_mpi, %struct.mbedtls_mpi, %struct.mbedtls_mpi, %struct.mbedtls_mpi, %struct.mbedtls_mpi, %struct.mbedtls_mpi }
%struct.mbedtls_ecdh_context = type { i8, i32, i32, %union.anon }
%union.anon = type { %struct.mbedtls_ecdh_context_mbed }
%struct.mbedtls_ecdh_context_mbed = type { %struct.mbedtls_ecp_group, %struct.mbedtls_mpi, %struct.mbedtls_ecp_point, %struct.mbedtls_ecp_point, %struct.mbedtls_mpi }
%struct.mbedtls_ecp_group = type { i32, %struct.mbedtls_mpi, %struct.mbedtls_mpi, %struct.mbedtls_mpi, %struct.mbedtls_ecp_point, %struct.mbedtls_mpi, i64, i64, i32, ptr, ptr, ptr, ptr, ptr, i64 }
%struct.mbedtls_ecp_point = type { %struct.mbedtls_mpi, %struct.mbedtls_mpi, %struct.mbedtls_mpi }
%struct.anon = type { i64, i8, [4 x %struct.mbedtls_ssl_hs_buffer], %struct.anon.0 }
%struct.mbedtls_ssl_hs_buffer = type { i8, ptr, i64 }
%struct.anon.0 = type { ptr, i64, i32 }
%union.anon.1 = type { %struct.anon.2 }
%struct.anon.2 = type { i8, [64 x i8], i64 }
%union.anon.4 = type { [64 x i8] }
%struct.mbedtls_ssl_tls13_handshake_secrets = type { [64 x i8], [64 x i8] }

@.str = private unnamed_addr constant [121 x i8] c"generated/home/dtcxzyw/WorkSpace/Projects/compilers/llvm-opt-benchmark/bench/lief/bench_build/mbed_src/library/ssl_tls.c\00", align 1
@.str.12 = private unnamed_addr constant [20 x i8] c"should never happen\00", align 1

; Function Attrs: nounwind uwtable
define hidden void @mbedtls_ssl_optimize_checksum(ptr noundef %0, ptr noundef %1) #0 {
  %3 = alloca ptr, align 8
  %4 = alloca ptr, align 8
  store ptr %0, ptr %3, align 8, !tbaa !27
  store ptr %1, ptr %4, align 8, !tbaa !74
  %5 = load ptr, ptr %4, align 8, !tbaa !74
  %6 = getelementptr inbounds nuw %struct.mbedtls_ssl_ciphersuite_t, ptr %5, i32 0, i32 3
  %7 = load i8, ptr %6, align 1, !tbaa !76
  %8 = zext i8 %7 to i32
  %9 = icmp eq i32 %8, 10
  br i1 %9, label %10, label %15

10:                                               ; preds = %2
  %11 = load ptr, ptr %3, align 8, !tbaa !27
  %12 = getelementptr inbounds nuw %struct.mbedtls_ssl_context, ptr %11, i32 0, i32 16
  %13 = load ptr, ptr %12, align 8, !tbaa !78
  %14 = getelementptr inbounds nuw %struct.mbedtls_ssl_handshake_params, ptr %13, i32 0, i32 11
  store ptr @ssl_update_checksum_sha384, ptr %14, align 8, !tbaa !79
  br label %29

15:                                               ; preds = %2
  %16 = load ptr, ptr %4, align 8, !tbaa !74
  %17 = getelementptr inbounds nuw %struct.mbedtls_ssl_ciphersuite_t, ptr %16, i32 0, i32 3
  %18 = load i8, ptr %17, align 1, !tbaa !76
  %19 = zext i8 %18 to i32
  %20 = icmp ne i32 %19, 10
  br i1 %20, label %21, label %26

21:                                               ; preds = %15
  %22 = load ptr, ptr %3, align 8, !tbaa !27
  %23 = getelementptr inbounds nuw %struct.mbedtls_ssl_context, ptr %22, i32 0, i32 16
  %24 = load ptr, ptr %23, align 8, !tbaa !78
  %25 = getelementptr inbounds nuw %struct.mbedtls_ssl_handshake_params, ptr %24, i32 0, i32 11
  store ptr @ssl_update_checksum_sha256, ptr %25, align 8, !tbaa !79
  br label %28

26:                                               ; preds = %15
  %27 = load ptr, ptr %3, align 8, !tbaa !27
  call void (ptr, i32, ptr, i32, ptr, ...) @mbedtls_debug_print_msg(ptr noundef %27, i32 noundef 1, ptr noundef @.str, i32 noundef 798, ptr noundef @.str.12)
  br label %29

28:                                               ; preds = %21
  br label %29

29:                                               ; preds = %26, %28, %10
  ret void
}