; Function Attrs: mustprogress nofree norecurse nosync nounwind willreturn memory(write, argmem: readwrite, inaccessiblemem: none) uwtable
define hidden void @mbedtls_ssl_optimize_checksum(ptr noundef readonly captures(none) %0, ptr noundef readonly captures(none) %1) local_unnamed_addr #10 {
  %3 = getelementptr inbounds nuw i8, ptr %1, i64 17
  %4 = load i8, ptr %3, align 1, !tbaa !68
  %5 = icmp eq i8 %4, 10
  %6 = getelementptr inbounds nuw i8, ptr %0, i64 112
  %7 = load ptr, ptr %6, align 8, !tbaa !70
  %8 = getelementptr inbounds nuw i8, ptr %7, i64 24
  %ssl_update_checksum_sha384.ssl_update_checksum_sha256 = select i1 %5, ptr @ssl_update_checksum_sha384, ptr @ssl_update_checksum_sha256
  store ptr %ssl_update_checksum_sha384.ssl_update_checksum_sha256, ptr %8, align 8, !tbaa !71
  ret void
}